target datalayout = "e-m:e-p270:32:32-p271:32:32-p272:64:64-i64:64-i128:128-f80:128-n8:16:32:64-S128"
target triple = "x86_64-pc-linux-gnu"

; Function Attrs: nounwind uwtable
define i64 @cli_strntol(ptr noundef %0, i64 noundef %1, ptr noundef %2, i32 noundef %3) #0 {
  %5 = alloca ptr, align 8
  %6 = alloca i64, align 8
  %7 = alloca ptr, align 8
  %8 = alloca i32, align 4
  %9 = alloca ptr, align 8
  %10 = alloca i64, align 8
  %11 = alloca i32, align 4
  %12 = alloca i64, align 8
  %13 = alloca i32, align 4
  %14 = alloca i32, align 4
  %15 = alloca i32, align 4
  store ptr %0, ptr %5, align 8
  store i64 %1, ptr %6, align 8
  store ptr %2, ptr %7, align 8
  store i32 %3, ptr %8, align 4
  %16 = load ptr, ptr %5, align 8
  store ptr %16, ptr %9, align 8
  store i64 0, ptr %10, align 8
  store i32 0, ptr %13, align 4
  store i32 0, ptr %14, align 4
  %17 = load i64, ptr %6, align 8
  %18 = icmp eq i64 0, %17
  br i1 %18, label %19, label %20

19:                                               ; preds = %4
  br label %243

20:                                               ; preds = %4
  br label %21

21:                                               ; preds = %42, %20
  %22 = load ptr, ptr %9, align 8
  %23 = load i8, ptr %22, align 1
  %24 = sext i8 %23 to i32
  store i32 %24, ptr %11, align 4
  br label %25

25:                                               ; preds = %21
  %26 = call ptr @__ctype_b_loc() #10
  %27 = load ptr, ptr %26, align 8
  %28 = load i32, ptr %11, align 4
  %29 = sext i32 %28 to i64
  %30 = getelementptr inbounds i16, ptr %27, i64 %29
  %31 = load i16, ptr %30, align 2
  %32 = zext i16 %31 to i32
  %33 = and i32 %32, 8192
  %34 = icmp ne i32 %33, 0
  br i1 %34, label %35, label %42

35:                                               ; preds = %25
  %36 = load ptr, ptr %9, align 8
  %37 = getelementptr inbounds i8, ptr %36, i32 1
  store ptr %37, ptr %9, align 8
  %38 = load ptr, ptr %5, align 8
  %39 = load i64, ptr %6, align 8
  %40 = getelementptr inbounds i8, ptr %38, i64 %39
  %41 = icmp ult ptr %37, %40
  br label %42

42:                                               ; preds = %35, %25
  %43 = phi i1 [ false, %25 ], [ %41, %35 ]
  br i1 %43, label %21, label %44

44:                                               ; preds = %42
  %45 = load ptr, ptr %9, align 8
  %46 = load ptr, ptr %5, align 8
  %47 = load i64, ptr %6, align 8
  %48 = getelementptr inbounds i8, ptr %46, i64 %47
  %49 = icmp uge ptr %45, %48
  br i1 %49, label %50, label %51

50:                                               ; preds = %44
  br label %243

51:                                               ; preds = %44
  %52 = load i32, ptr %11, align 4
  %53 = icmp eq i32 %52, 45
  br i1 %53, label %54, label %66

54:                                               ; preds = %51
  store i32 1, ptr %13, align 4
  %55 = load ptr, ptr %9, align 8
  %56 = getelementptr inbounds i8, ptr %55, i32 1
  store ptr %56, ptr %9, align 8
  %57 = load i8, ptr %55, align 1
  %58 = sext i8 %57 to i32
  store i32 %58, ptr %11, align 4
  %59 = load ptr, ptr %9, align 8
  %60 = load ptr, ptr %5, align 8
  %61 = load i64, ptr %6, align 8
  %62 = getelementptr inbounds i8, ptr %60, i64 %61
  %63 = icmp uge ptr %59, %62
  br i1 %63, label %64, label %65

64:                                               ; preds = %54
  br label %243

65:                                               ; preds = %54
  br label %82

66:                                               ; preds = %51
  %67 = load i32, ptr %11, align 4
  %68 = icmp eq i32 %67, 43
  br i1 %68, label %69, label %81

69:                                               ; preds = %66
  %70 = load ptr, ptr %9, align 8
  %71 = getelementptr inbounds i8, ptr %70, i32 1
  store ptr %71, ptr %9, align 8
  %72 = load i8, ptr %70, align 1
  %73 = sext i8 %72 to i32
  store i32 %73, ptr %11, align 4
  %74 = load ptr, ptr %9, align 8
  %75 = load ptr, ptr %5, align 8
  %76 = load i64, ptr %6, align 8
  %77 = getelementptr inbounds i8, ptr %75, i64 %76
  %78 = icmp uge ptr %74, %77
  br i1 %78, label %79, label %80

79:                                               ; preds = %69
  br label %243

80:                                               ; preds = %69
  br label %81

81:                                               ; preds = %80, %66
  br label %82

82:                                               ; preds = %81, %65
  %83 = load i32, ptr %8, align 4
  %84 = icmp eq i32 %83, 0
  br i1 %84, label %88, label %85

85:                                               ; preds = %82
  %86 = load i32, ptr %8, align 4
  %87 = icmp eq i32 %86, 16
  br i1 %87, label %88, label %126

88:                                               ; preds = %85, %82
  %89 = load i32, ptr %11, align 4
  %90 = icmp eq i32 %89, 48
  br i1 %90, label %91, label %125

91:                                               ; preds = %88
  %92 = load ptr, ptr %9, align 8
  %93 = getelementptr inbounds i8, ptr %92, i64 1
  %94 = load ptr, ptr %5, align 8
  %95 = load i64, ptr %6, align 8
  %96 = getelementptr inbounds i8, ptr %94, i64 %95
  %97 = icmp ult ptr %93, %96
  br i1 %97, label %98, label %125

98:                                               ; preds = %91
  %99 = load ptr, ptr %9, align 8
  %100 = getelementptr inbounds i8, ptr %99, i64 1
  %101 = load i8, ptr %100, align 1
  %102 = sext i8 %101 to i32
  %103 = icmp eq i32 %102, 120
  br i1 %103, label %110, label %104

104:                                              ; preds = %98
  %105 = load ptr, ptr %9, align 8
  %106 = getelementptr inbounds i8, ptr %105, i64 1
  %107 = load i8, ptr %106, align 1
  %108 = sext i8 %107 to i32
  %109 = icmp eq i32 %108, 88
  br i1 %109, label %110, label %125

110:                                              ; preds = %104, %98
  %111 = load ptr, ptr %9, align 8
  %112 = getelementptr inbounds i8, ptr %111, i64 2
  %113 = load ptr, ptr %5, align 8
  %114 = load i64, ptr %6, align 8
  %115 = getelementptr inbounds i8, ptr %113, i64 %114
  %116 = icmp uge ptr %112, %115
  br i1 %116, label %117, label %118

117:                                              ; preds = %110
  br label %243

118:                                              ; preds = %110
  %119 = load ptr, ptr %9, align 8
  %120 = getelementptr inbounds i8, ptr %119, i64 1
  %121 = load i8, ptr %120, align 1
  %122 = sext i8 %121 to i32
  store i32 %122, ptr %11, align 4
  %123 = load ptr, ptr %9, align 8
  %124 = getelementptr inbounds i8, ptr %123, i64 2
  store ptr %124, ptr %9, align 8
  store i32 16, ptr %8, align 4
  br label %125

125:                                              ; preds = %118, %104, %91, %88
  br label %126

126:                                              ; preds = %125, %85
  %127 = load i32, ptr %8, align 4
  %128 = icmp eq i32 %127, 0
  br i1 %128, label %129, label %133

129:                                              ; preds = %126
  %130 = load i32, ptr %11, align 4
  %131 = icmp eq i32 %130, 48
  %132 = select i1 %131, i32 8, i32 10
  store i32 %132, ptr %8, align 4
  br label %133

133:                                              ; preds = %129, %126
  %134 = load i32, ptr %13, align 4
  %135 = icmp ne i32 %134, 0
  %136 = select i1 %135, i64 -9223372036854775808, i64 9223372036854775807
  store i64 %136, ptr %12, align 8
  %137 = load i64, ptr %12, align 8
  %138 = load i32, ptr %8, align 4
  %139 = sext i32 %138 to i64
  %140 = urem i64 %137, %139
  %141 = trunc i64 %140 to i32
  store i32 %141, ptr %15, align 4
  %142 = load i32, ptr %8, align 4
  %143 = sext i32 %142 to i64
  %144 = load i64, ptr %12, align 8
  %145 = udiv i64 %144, %143
  store i64 %145, ptr %12, align 8
  store i64 0, ptr %10, align 8
  store i32 0, ptr %14, align 4
  br label %146

146:                                              ; preds = %224, %133
  %147 = load ptr, ptr %9, align 8
  %148 = load ptr, ptr %5, align 8
  %149 = load i64, ptr %6, align 8
  %150 = getelementptr inbounds i8, ptr %148, i64 %149
  %151 = icmp ult ptr %147, %150
  br i1 %151, label %152, label %227

152:                                              ; preds = %146
  %153 = load ptr, ptr %9, align 8
  %154 = load i8, ptr %153, align 1
  %155 = sext i8 %154 to i32
  store i32 %155, ptr %11, align 4
  %156 = call ptr @__ctype_b_loc() #10
  %157 = load ptr, ptr %156, align 8
  %158 = load i32, ptr %11, align 4
  %159 = sext i32 %158 to i64
  %160 = getelementptr inbounds i16, ptr %157, i64 %159
  %161 = load i16, ptr %160, align 2
  %162 = zext i16 %161 to i32
  %163 = and i32 %162, 2048
  %164 = icmp ne i32 %163, 0
  br i1 %164, label %165, label %168

165:                                              ; preds = %152
  %166 = load i32, ptr %11, align 4
  %167 = sub nsw i32 %166, 48
  store i32 %167, ptr %11, align 4
  br label %193

168:                                              ; preds = %152
  %169 = call ptr @__ctype_b_loc() #10
  %170 = load ptr, ptr %169, align 8
  %171 = load i32, ptr %11, align 4
  %172 = sext i32 %171 to i64
  %173 = getelementptr inbounds i16, ptr %170, i64 %172
  %174 = load i16, ptr %173, align 2
  %175 = zext i16 %174 to i32
  %176 = and i32 %175, 1024
  %177 = icmp ne i32 %176, 0
  br i1 %177, label %178, label %191

178:                                              ; preds = %168
  %179 = call ptr @__ctype_b_loc() #10
  %180 = load ptr, ptr %179, align 8
  %181 = load i32, ptr %11, align 4
  %182 = sext i32 %181 to i64
  %183 = getelementptr inbounds i16, ptr %180, i64 %182
  %184 = load i16, ptr %183, align 2
  %185 = zext i16 %184 to i32
  %186 = and i32 %185, 256
  %187 = icmp ne i32 %186, 0
  %188 = select i1 %187, i32 55, i32 87
  %189 = load i32, ptr %11, align 4
  %190 = sub nsw i32 %189, %188
  store i32 %190, ptr %11, align 4
  br label %192

191:                                              ; preds = %168
  br label %227

192:                                              ; preds = %178
  br label %193

193:                                              ; preds = %192, %165
  %194 = load i32, ptr %11, align 4
  %195 = load i32, ptr %8, align 4
  %196 = icmp sge i32 %194, %195
  br i1 %196, label %197, label %198

197:                                              ; preds = %193
  br label %227

198:                                              ; preds = %193
  %199 = load i32, ptr %14, align 4
  %200 = icmp slt i32 %199, 0
  br i1 %200, label %213, label %201

201:                                              ; preds = %198
  %202 = load i64, ptr %10, align 8
  %203 = load i64, ptr %12, align 8
  %204 = icmp ugt i64 %202, %203
  br i1 %204, label %213, label %205

205:                                              ; preds = %201
  %206 = load i64, ptr %10, align 8
  %207 = load i64, ptr %12, align 8
  %208 = icmp eq i64 %206, %207
  br i1 %208, label %209, label %214

209:                                              ; preds = %205
  %210 = load i32, ptr %11, align 4
  %211 = load i32, ptr %15, align 4
  %212 = icmp sgt i32 %210, %211
  br i1 %212, label %213, label %214

213:                                              ; preds = %209, %201, %198
  store i32 -1, ptr %14, align 4
  br label %223

214:                                              ; preds = %209, %205
  store i32 1, ptr %14, align 4
  %215 = load i32, ptr %8, align 4
  %216 = sext i32 %215 to i64
  %217 = load i64, ptr %10, align 8
  %218 = mul i64 %217, %216
  store i64 %218, ptr %10, align 8
  %219 = load i32, ptr %11, align 4
  %220 = sext i32 %219 to i64
  %221 = load i64, ptr %10, align 8
  %222 = add i64 %221, %220
  store i64 %222, ptr %10, align 8
  br label %223

223:                                              ; preds = %214, %213
  br label %224

224:                                              ; preds = %223
  %225 = load ptr, ptr %9, align 8
  %226 = getelementptr inbounds i8, ptr %225, i32 1
  store ptr %226, ptr %9, align 8
  br label %146

227:                                              ; preds = %197, %191, %146
  %228 = load i32, ptr %14, align 4
  %229 = icmp slt i32 %228, 0
  br i1 %229, label %230, label %235

230:                                              ; preds = %227
  %231 = load i32, ptr %13, align 4
  %232 = icmp ne i32 %231, 0
  %233 = select i1 %232, i64 -9223372036854775808, i64 9223372036854775807
  store i64 %233, ptr %10, align 8
  %234 = call ptr @__errno_location() #10
  store i32 34, ptr %234, align 4
  br label %242

235:                                              ; preds = %227
  %236 = load i32, ptr %13, align 4
  %237 = icmp ne i32 %236, 0
  br i1 %237, label %238, label %241

238:                                              ; preds = %235
  %239 = load i64, ptr %10, align 8
  %240 = sub i64 0, %239
  store i64 %240, ptr %10, align 8
  br label %241

241:                                              ; preds = %238, %235
  br label %242

242:                                              ; preds = %241, %230
  br label %243

243:                                              ; preds = %242, %117, %79, %64, %50, %19
  %244 = load ptr, ptr %7, align 8
  %245 = icmp ne ptr %244, null
  br i1 %245, label %246, label %256

246:                                              ; preds = %243
  %247 = load i32, ptr %14, align 4
  %248 = icmp ne i32 %247, 0
  br i1 %248, label %249, label %251

249:                                              ; preds = %246
  %250 = load ptr, ptr %9, align 8
  br label %253

251:                                              ; preds = %246
  %252 = load ptr, ptr %5, align 8
  br label %253

253:                                              ; preds = %251, %249
  %254 = phi ptr [ %250, %249 ], [ %252, %251 ]
  %255 = load ptr, ptr %7, align 8
  store ptr %254, ptr %255, align 8
  br label %256

256:                                              ; preds = %253, %243
  %257 = load i64, ptr %10, align 8
  ret i64 %257
}