; Function Attrs: nofree nosync nounwind memory(readwrite, inaccessiblemem: none) uwtable
define i64 @cli_strntol(ptr noundef %0, i64 noundef %1, ptr noundef writeonly %2, i32 noundef %3) local_unnamed_addr #17 {
  %5 = icmp eq i64 %1, 0
  br i1 %5, label %.thread152, label %.preheader

.preheader:                                       ; preds = %4
  %6 = tail call ptr @__ctype_b_loc() #29
  %7 = load ptr, ptr %6, align 8
  %8 = getelementptr inbounds i8, ptr %0, i64 %1
  br label %9

9:                                                ; preds = %.preheader, %15
  %.084 = phi ptr [ %16, %15 ], [ %0, %.preheader ]
  %10 = load i8, ptr %.084, align 1
  %11 = sext i8 %10 to i64
  %12 = getelementptr inbounds i16, ptr %7, i64 %11
  %13 = load i16, ptr %12, align 2
  %14 = and i16 %13, 8192
  %.not = icmp eq i16 %14, 0
  br i1 %.not, label %.critedge, label %15

15:                                               ; preds = %9
  %16 = getelementptr inbounds i8, ptr %.084, i64 1
  %17 = icmp ult ptr %16, %8
  br i1 %17, label %9, label %.critedge

.critedge:                                        ; preds = %9, %15
  %.185 = phi ptr [ %16, %15 ], [ %.084, %9 ]
  %.not100 = icmp ult ptr %.185, %8
  br i1 %.not100, label %18, label %.thread152

18:                                               ; preds = %.critedge
  %.not105 = icmp eq i8 %10, 45
  br i1 %.not105, label %19, label %22

19:                                               ; preds = %18
  %20 = getelementptr inbounds i8, ptr %.185, i64 1
  %21 = load i8, ptr %.185, align 1
  %.not102 = icmp ult ptr %20, %8
  br i1 %.not102, label %27, label %.thread152

22:                                               ; preds = %18
  %23 = icmp eq i8 %10, 43
  br i1 %23, label %24, label %27

24:                                               ; preds = %22
  %25 = getelementptr inbounds i8, ptr %.185, i64 1
  %26 = load i8, ptr %.185, align 1
  %.not101 = icmp ult ptr %25, %8
  br i1 %.not101, label %27, label %.thread152

27:                                               ; preds = %22, %24, %19
  %.286 = phi ptr [ %20, %19 ], [ %25, %24 ], [ %.185, %22 ]
  %.078.in = phi i8 [ %21, %19 ], [ %26, %24 ], [ %10, %22 ]
  %.078.in.fr = freeze i8 %.078.in
  %28 = and i32 %3, -17
  %or.cond = icmp eq i32 %28, 0
  %29 = icmp eq i8 %.078.in.fr, 48
  %or.cond3 = and i1 %or.cond, %29
  br i1 %or.cond3, label %30, label %38

30:                                               ; preds = %27
  %31 = getelementptr inbounds i8, ptr %.286, i64 1
  %32 = icmp ult ptr %31, %8
  br i1 %32, label %33, label %.thread

33:                                               ; preds = %30
  %34 = load i8, ptr %31, align 1
  switch i8 %34, label %.thread [
    i8 120, label %35
    i8 88, label %35
  ]

35:                                               ; preds = %33, %33
  %36 = getelementptr inbounds i8, ptr %.286, i64 2
  %.not103 = icmp ult ptr %36, %8
  br i1 %.not103, label %.thread127, label %.thread152

.thread:                                          ; preds = %30, %33
  %37 = icmp eq i32 %3, 0
  br i1 %37, label %40, label %.thread127

38:                                               ; preds = %27
  %39 = icmp eq i32 %3, 0
  %. = select i1 %29, i32 8, i32 10
  br i1 %39, label %40, label %.thread127

40:                                               ; preds = %38, %.thread
  %41 = phi i32 [ 8, %.thread ], [ %., %38 ]
  br label %.thread127

.thread127:                                       ; preds = %38, %35, %.thread, %40
  %.3118130 = phi ptr [ %.286, %40 ], [ %.286, %.thread ], [ %36, %35 ], [ %.286, %38 ]
  %42 = phi i32 [ %41, %40 ], [ %3, %.thread ], [ 16, %35 ], [ %3, %38 ]
  %43 = select i1 %.not105, i64 -9223372036854775808, i64 9223372036854775807
  %44 = sext i32 %42 to i64
  %45 = urem i64 %43, %44
  %46 = trunc i64 %45 to i32
  %47 = udiv i64 %43, %44
  %48 = icmp ult ptr %.3118130, %8
  br i1 %48, label %.lr.ph, label %.thread152

.lr.ph:                                           ; preds = %.thread127, %74
  %.075135 = phi i32 [ %.176, %74 ], [ 0, %.thread127 ]
  %.081134 = phi i64 [ %.182, %74 ], [ 0, %.thread127 ]
  %.4133 = phi ptr [ %75, %74 ], [ %.3118130, %.thread127 ]
  %49 = load i8, ptr %.4133, align 1
  %50 = sext i8 %49 to i32
  %51 = sext i8 %49 to i64
  %52 = getelementptr inbounds i16, ptr %7, i64 %51
  %53 = load i16, ptr %52, align 2
  %54 = zext i16 %53 to i32
  %55 = and i32 %54, 2048
  %.not106 = icmp eq i32 %55, 0
  br i1 %.not106, label %58, label %56

56:                                               ; preds = %.lr.ph
  %57 = add nsw i32 %50, -48
  br label %63

58:                                               ; preds = %.lr.ph
  %59 = and i32 %54, 1024
  %.not107 = icmp eq i32 %59, 0
  br i1 %.not107, label %._crit_edge, label %60

60:                                               ; preds = %58
  %61 = and i32 %54, 256
  %.not108 = icmp eq i32 %61, 0
  %.neg = select i1 %.not108, i32 -87, i32 -55
  %62 = add nsw i32 %.neg, %50
  br label %63

63:                                               ; preds = %60, %56
  %.280 = phi i32 [ %57, %56 ], [ %62, %60 ]
  %.not109 = icmp slt i32 %.280, %42
  br i1 %.not109, label %64, label %._crit_edge

64:                                               ; preds = %63
  %65 = icmp slt i32 %.075135, 0
  %66 = icmp ugt i64 %.081134, %47
  %or.cond112 = select i1 %65, i1 true, i1 %66
  br i1 %or.cond112, label %74, label %67

67:                                               ; preds = %64
  %68 = icmp eq i64 %.081134, %47
  %69 = icmp sgt i32 %.280, %46
  %or.cond113 = and i1 %68, %69
  br i1 %or.cond113, label %74, label %70

70:                                               ; preds = %67
  %71 = mul i64 %.081134, %44
  %72 = sext i32 %.280 to i64
  %73 = add i64 %71, %72
  br label %74

74:                                               ; preds = %64, %67, %70
  %.182 = phi i64 [ %73, %70 ], [ %47, %67 ], [ %.081134, %64 ]
  %.176 = phi i32 [ 1, %70 ], [ -1, %67 ], [ -1, %64 ]
  %75 = getelementptr inbounds i8, ptr %.4133, i64 1
  %76 = icmp ult ptr %75, %8
  br i1 %76, label %.lr.ph, label %._crit_edge

._crit_edge:                                      ; preds = %74, %58, %63
  %.4.lcssa = phi ptr [ %75, %74 ], [ %.4133, %58 ], [ %.4133, %63 ]
  %.081.lcssa = phi i64 [ %.182, %74 ], [ %.081134, %58 ], [ %.081134, %63 ]
  %.075.lcssa = phi i32 [ %.176, %74 ], [ %.075135, %58 ], [ %.075135, %63 ]
  %77 = icmp slt i32 %.075.lcssa, 0
  br i1 %77, label %78, label %80

78:                                               ; preds = %._crit_edge
  %79 = tail call ptr @__errno_location() #29
  store i32 34, ptr %79, align 4
  br label %.thread152

80:                                               ; preds = %._crit_edge
  %81 = sub i64 0, %.081.lcssa
  %spec.select = select i1 %.not105, i64 %81, i64 %.081.lcssa
  %82 = icmp eq i32 %.075.lcssa, 0
  %spec.select159 = select i1 %82, ptr %0, ptr %.4.lcssa
  br label %.thread152

.thread152:                                       ; preds = %80, %.thread127, %78, %35, %24, %19, %.critedge, %4
  %.283 = phi i64 [ 0, %4 ], [ 0, %.critedge ], [ 0, %19 ], [ 0, %35 ], [ %43, %78 ], [ 0, %24 ], [ 0, %.thread127 ], [ %spec.select, %80 ]
  %.2 = phi ptr [ %0, %4 ], [ %0, %.critedge ], [ %0, %19 ], [ %0, %35 ], [ %.4.lcssa, %78 ], [ %0, %24 ], [ %0, %.thread127 ], [ %spec.select159, %80 ]
  %.not110 = icmp eq ptr %2, null
  br i1 %.not110, label %84, label %83

83:                                               ; preds = %.thread152
  store ptr %.2, ptr %2, align 8
  br label %84

84:                                               ; preds = %83, %.thread152
  ret i64 %.283
}